target datalayout = "e-m:e-p270:32:32-p271:32:32-p272:64:64-i64:64-i128:128-f80:128-n8:16:32:64-S128"
target triple = "x86_64-pc-linux-gnu"

%struct.dt_wb_data = type { ptr, ptr, ptr, i32, [4 x double] }

; Function Attrs: nounwind uwtable
define void @dt_wb_preset_interpolate(ptr noundef %0, ptr noundef %1, ptr noundef %2) #0 {
  %4 = alloca ptr, align 8
  %5 = alloca ptr, align 8
  %6 = alloca ptr, align 8
  %7 = alloca double, align 8
  %8 = alloca i32, align 4
  store ptr %0, ptr %4, align 8, !tbaa !10
  store ptr %1, ptr %5, align 8, !tbaa !10
  store ptr %2, ptr %6, align 8, !tbaa !10
  call void @llvm.lifetime.start.p0(i64 8, ptr %7) #9
  %9 = load ptr, ptr %6, align 8, !tbaa !10
  %10 = getelementptr inbounds nuw %struct.dt_wb_data, ptr %9, i32 0, i32 3
  %11 = load i32, ptr %10, align 8, !tbaa !64
  %12 = load ptr, ptr %4, align 8, !tbaa !10
  %13 = getelementptr inbounds nuw %struct.dt_wb_data, ptr %12, i32 0, i32 3
  %14 = load i32, ptr %13, align 8, !tbaa !64
  %15 = sub nsw i32 %11, %14
  %16 = sitofp i32 %15 to double
  %17 = load ptr, ptr %5, align 8, !tbaa !10
  %18 = getelementptr inbounds nuw %struct.dt_wb_data, ptr %17, i32 0, i32 3
  %19 = load i32, ptr %18, align 8, !tbaa !64
  %20 = load ptr, ptr %4, align 8, !tbaa !10
  %21 = getelementptr inbounds nuw %struct.dt_wb_data, ptr %20, i32 0, i32 3
  %22 = load i32, ptr %21, align 8, !tbaa !64
  %23 = sub nsw i32 %19, %22
  %24 = sitofp i32 %23 to double
  %25 = fdiv reassoc nsz arcp contract afn double %16, %24
  %26 = fcmp reassoc nsz arcp contract afn ogt double %25, 1.000000e+00
  br i1 %26, label %27, label %28

27:                                               ; preds = %3
  br label %68

28:                                               ; preds = %3
  %29 = load ptr, ptr %6, align 8, !tbaa !10
  %30 = getelementptr inbounds nuw %struct.dt_wb_data, ptr %29, i32 0, i32 3
  %31 = load i32, ptr %30, align 8, !tbaa !64
  %32 = load ptr, ptr %4, align 8, !tbaa !10
  %33 = getelementptr inbounds nuw %struct.dt_wb_data, ptr %32, i32 0, i32 3
  %34 = load i32, ptr %33, align 8, !tbaa !64
  %35 = sub nsw i32 %31, %34
  %36 = sitofp i32 %35 to double
  %37 = load ptr, ptr %5, align 8, !tbaa !10
  %38 = getelementptr inbounds nuw %struct.dt_wb_data, ptr %37, i32 0, i32 3
  %39 = load i32, ptr %38, align 8, !tbaa !64
  %40 = load ptr, ptr %4, align 8, !tbaa !10
  %41 = getelementptr inbounds nuw %struct.dt_wb_data, ptr %40, i32 0, i32 3
  %42 = load i32, ptr %41, align 8, !tbaa !64
  %43 = sub nsw i32 %39, %42
  %44 = sitofp i32 %43 to double
  %45 = fdiv reassoc nsz arcp contract afn double %36, %44
  %46 = fcmp reassoc nsz arcp contract afn olt double %45, 0.000000e+00
  br i1 %46, label %47, label %48

47:                                               ; preds = %28
  br label %66

48:                                               ; preds = %28
  %49 = load ptr, ptr %6, align 8, !tbaa !10
  %50 = getelementptr inbounds nuw %struct.dt_wb_data, ptr %49, i32 0, i32 3
  %51 = load i32, ptr %50, align 8, !tbaa !64
  %52 = load ptr, ptr %4, align 8, !tbaa !10
  %53 = getelementptr inbounds nuw %struct.dt_wb_data, ptr %52, i32 0, i32 3
  %54 = load i32, ptr %53, align 8, !tbaa !64
  %55 = sub nsw i32 %51, %54
  %56 = sitofp i32 %55 to double
  %57 = load ptr, ptr %5, align 8, !tbaa !10
  %58 = getelementptr inbounds nuw %struct.dt_wb_data, ptr %57, i32 0, i32 3
  %59 = load i32, ptr %58, align 8, !tbaa !64
  %60 = load ptr, ptr %4, align 8, !tbaa !10
  %61 = getelementptr inbounds nuw %struct.dt_wb_data, ptr %60, i32 0, i32 3
  %62 = load i32, ptr %61, align 8, !tbaa !64
  %63 = sub nsw i32 %59, %62
  %64 = sitofp i32 %63 to double
  %65 = fdiv reassoc nsz arcp contract afn double %56, %64
  br label %66

66:                                               ; preds = %48, %47
  %67 = phi reassoc nsz arcp contract afn double [ 0.000000e+00, %47 ], [ %65, %48 ]
  br label %68

68:                                               ; preds = %66, %27
  %69 = phi reassoc nsz arcp contract afn double [ 1.000000e+00, %27 ], [ %67, %66 ]
  store double %69, ptr %7, align 8, !tbaa !65
  call void @llvm.lifetime.start.p0(i64 4, ptr %8) #9
  store i32 0, ptr %8, align 4, !tbaa !6
  br label %70

70:                                               ; preds = %99, %68
  %71 = load i32, ptr %8, align 4, !tbaa !6
  %72 = icmp slt i32 %71, 3
  br i1 %72, label %74, label %73

73:                                               ; preds = %70
  call void @llvm.lifetime.end.p0(i64 4, ptr %8) #9
  br label %102

74:                                               ; preds = %70
  %75 = load double, ptr %7, align 8, !tbaa !65
  %76 = fsub reassoc nsz arcp contract afn double 1.000000e+00, %75
  %77 = load ptr, ptr %4, align 8, !tbaa !10
  %78 = getelementptr inbounds nuw %struct.dt_wb_data, ptr %77, i32 0, i32 4
  %79 = load i32, ptr %8, align 4, !tbaa !6
  %80 = sext i32 %79 to i64
  %81 = getelementptr inbounds [4 x double], ptr %78, i64 0, i64 %80
  %82 = load double, ptr %81, align 8, !tbaa !65
  %83 = fdiv reassoc nsz arcp contract afn double %76, %82
  %84 = load double, ptr %7, align 8, !tbaa !65
  %85 = load ptr, ptr %5, align 8, !tbaa !10
  %86 = getelementptr inbounds nuw %struct.dt_wb_data, ptr %85, i32 0, i32 4
  %87 = load i32, ptr %8, align 4, !tbaa !6
  %88 = sext i32 %87 to i64
  %89 = getelementptr inbounds [4 x double], ptr %86, i64 0, i64 %88
  %90 = load double, ptr %89, align 8, !tbaa !65
  %91 = fdiv reassoc nsz arcp contract afn double %84, %90
  %92 = fadd reassoc nsz arcp contract afn double %83, %91
  %93 = fdiv reassoc nsz arcp contract afn double 1.000000e+00, %92
  %94 = load ptr, ptr %6, align 8, !tbaa !10
  %95 = getelementptr inbounds nuw %struct.dt_wb_data, ptr %94, i32 0, i32 4
  %96 = load i32, ptr %8, align 4, !tbaa !6
  %97 = sext i32 %96 to i64
  %98 = getelementptr inbounds [4 x double], ptr %95, i64 0, i64 %97
  store double %93, ptr %98, align 8, !tbaa !65
  br label %99

99:                                               ; preds = %74
  %100 = load i32, ptr %8, align 4, !tbaa !6
  %101 = add nsw i32 %100, 1
  store i32 %101, ptr %8, align 4, !tbaa !6
  br label %70

102:                                              ; preds = %73
  call void @llvm.lifetime.end.p0(i64 8, ptr %7) #9
  ret void
}