; Function Attrs: nofree norecurse nosync nounwind memory(argmem: readwrite) uwtable
define void @dt_wb_preset_interpolate(ptr noundef readonly captures(none) %0, ptr noundef readonly captures(none) %1, ptr noundef captures(none) %2) local_unnamed_addr #9 {
  %4 = getelementptr inbounds nuw i8, ptr %2, i64 24
  %5 = load i32, ptr %4, align 8, !tbaa !58
  %6 = getelementptr inbounds nuw i8, ptr %0, i64 24
  %7 = load i32, ptr %6, align 8, !tbaa !58
  %8 = sub nsw i32 %5, %7
  %9 = sitofp i32 %8 to double
  %10 = getelementptr inbounds nuw i8, ptr %1, i64 24
  %11 = load i32, ptr %10, align 8, !tbaa !58
  %12 = sub nsw i32 %11, %7
  %13 = sitofp i32 %12 to double
  %14 = fdiv reassoc nsz arcp contract afn double %9, %13
  %15 = fcmp reassoc nsz arcp contract afn ogt double %14, 1.000000e+00
  br i1 %15, label %19, label %16

16:                                               ; preds = %3
  %17 = fcmp reassoc nsz arcp contract afn olt double %14, 0.000000e+00
  br i1 %17, label %19, label %18

18:                                               ; preds = %16
  br label %19

19:                                               ; preds = %18, %16, %3
  %20 = phi reassoc nsz arcp contract afn double [ 1.000000e+00, %3 ], [ %14, %18 ], [ 0.000000e+00, %16 ]
  %21 = fsub reassoc nsz arcp contract afn double 1.000000e+00, %20
  %22 = getelementptr inbounds nuw i8, ptr %0, i64 32
  %23 = getelementptr inbounds nuw i8, ptr %1, i64 32
  %24 = getelementptr inbounds nuw i8, ptr %2, i64 32
  br label %26

25:                                               ; preds = %26
  ret void

26:                                               ; preds = %19, %26
  %indvars.iv = phi i64 [ 0, %19 ], [ %indvars.iv.next, %26 ]
  %27 = getelementptr inbounds nuw [4 x double], ptr %22, i64 0, i64 %indvars.iv
  %28 = load double, ptr %27, align 8, !tbaa !59
  %29 = fdiv reassoc nsz arcp contract afn double %21, %28
  %30 = getelementptr inbounds nuw [4 x double], ptr %23, i64 0, i64 %indvars.iv
  %31 = load double, ptr %30, align 8, !tbaa !59
  %32 = fdiv reassoc nsz arcp contract afn double %20, %31
  %33 = fadd reassoc nsz arcp contract afn double %32, %29
  %34 = fdiv reassoc nsz arcp contract afn double 1.000000e+00, %33
  %35 = getelementptr inbounds nuw [4 x double], ptr %24, i64 0, i64 %indvars.iv
  store double %34, ptr %35, align 8, !tbaa !59
  %indvars.iv.next = add nuw nsw i64 %indvars.iv, 1
  %exitcond.not = icmp eq i64 %indvars.iv.next, 3
  br i1 %exitcond.not, label %25, label %26
}